target datalayout = "e-m:e-p270:32:32-p271:32:32-p272:64:64-i64:64-i128:128-f80:128-n8:16:32:64-S128"
target triple = "x86_64-pc-linux-gnu"

%class.ExpressionFuncall = type { %class.Expression, ptr }
%class.Expression = type { ptr, i32, i32, ptr }

; Function Attrs: mustprogress uwtable
define dso_local void @_ZNK17ExpressionFuncall16get_called_funcsERSt6vectorIPK22FunctionInvocationUserSaIS3_EE(ptr noundef nonnull align 8 dereferenceable(32) %0, ptr noundef nonnull align 1 %1) unnamed_addr #4 align 2 {
  %3 = alloca ptr, align 8
  %4 = alloca ptr, align 8
  store ptr %0, ptr %3, align 8
  store ptr %1, ptr %4, align 8
  %5 = load ptr, ptr %3, align 8
  %6 = getelementptr inbounds %class.ExpressionFuncall, ptr %5, i32 0, i32 1
  %7 = load ptr, ptr %6, align 8
  %8 = load ptr, ptr %4, align 8
  %9 = load ptr, ptr %7, align 8
  %10 = getelementptr inbounds ptr, ptr %9, i64 4
  %11 = load ptr, ptr %10, align 8
  call void %11(ptr noundef nonnull align 8 dereferenceable(56) %7, ptr noundef nonnull align 1 %8)
  ret void
}